target datalayout = "e-m:e-p270:32:32-p271:32:32-p272:64:64-i64:64-i128:128-f80:128-n8:16:32:64-S128"
target triple = "x86_64-pc-linux-gnu"

; Function Attrs: nounwind uwtable
define hidden zeroext i1 @SDL_WaitEventTimeout_REAL(ptr noundef %0, i32 noundef %1) #0 {
  %3 = alloca ptr, align 8
  %4 = alloca i32, align 4
  %5 = alloca i64, align 8
  store ptr %0, ptr %3, align 8
  store i32 %1, ptr %4, align 4
  call void @llvm.lifetime.start.p0(i64 8, ptr %5) #5
  %6 = load i32, ptr %4, align 4
  %7 = icmp sgt i32 %6, 0
  br i1 %7, label %8, label %12

8:                                                ; preds = %2
  %9 = load i32, ptr %4, align 4
  %10 = sext i32 %9 to i64
  %11 = mul i64 %10, 1000000
  store i64 %11, ptr %5, align 8
  br label %15

12:                                               ; preds = %2
  %13 = load i32, ptr %4, align 4
  %14 = sext i32 %13 to i64
  store i64 %14, ptr %5, align 8
  br label %15

15:                                               ; preds = %12, %8
  %16 = load ptr, ptr %3, align 8
  %17 = load i64, ptr %5, align 8
  %18 = call zeroext i1 @SDL_WaitEventTimeoutNS(ptr noundef %16, i64 noundef %17)
  call void @llvm.lifetime.end.p0(i64 8, ptr %5) #5
  ret i1 %18
}