; Function Attrs: nounwind uwtable
define hidden zeroext i1 @SDL_WaitEventTimeout_REAL(ptr noundef %0, i32 noundef %1) local_unnamed_addr #0 {
  %3 = icmp sgt i32 %1, 0
  %4 = zext nneg i32 %1 to i64
  %5 = mul nuw nsw i64 %4, 1000000
  %6 = sext i32 %1 to i64
  %.0 = select i1 %3, i64 %5, i64 %6
  %7 = tail call zeroext i1 @SDL_WaitEventTimeoutNS(ptr noundef %0, i64 noundef %.0)
  ret i1 %7
}